; Function Attrs: mustprogress uwtable
define internal void @"_ZN32pxrInternal_v0_24__pxrReserved__13TfFunctionRefIFvRKSt6vectorISt4pairINS_22SdfPredicateExpression2OpEiESaIS5_EEEE9_InvokeFnIZNKS3_4WalkENS0_IFvS4_iEEENS0_IFvRKNS3_6FnCallEEEEE3$_0EEvPKvS9_"(ptr nocapture noundef readonly %0, ptr nocapture noundef nonnull readonly align 8 dereferenceable(24) %1) #0 align 2 {
  %.val = load ptr, ptr %0, align 8
  %3 = getelementptr inbounds i8, ptr %1, i64 8
  %.val2 = load ptr, ptr %3, align 8
  %.val.val = load ptr, ptr %.val, align 8
  %4 = getelementptr i8, ptr %.val, i64 8
  %.val.val3 = load ptr, ptr %4, align 8
  %5 = getelementptr i8, ptr %.val2, i64 -8
  %.val2.val = load i32, ptr %5, align 4
  %6 = getelementptr i8, ptr %.val2, i64 -4
  %.val2.val4 = load i32, ptr %6, align 4
  tail call void %.val.val3(ptr noundef %.val.val, i32 noundef %.val2.val, i32 noundef %.val2.val4)
  ret void
}